; Function Attrs: mustprogress nounwind uwtable
define hidden void @_ZN6hermes16InstructionNamer5clearEv(ptr noundef nonnull align 8 dereferenceable(52) %this) local_unnamed_addr #0 align 2 {
entry:
  %Counter = getelementptr inbounds i8, ptr %this, i64 48
  store i32 0, ptr %Counter, align 8
  %_M_parent.i.i.i.i = getelementptr inbounds i8, ptr %this, i64 16
  %0 = load ptr, ptr %_M_parent.i.i.i.i, align 8
  tail call void @_ZNSt8_Rb_treeIPN6hermes5ValueESt4pairIKS2_jESt10_Select1stIS5_ESt4lessIS2_ESaIS5_EE8_M_eraseEPSt13_Rb_tree_nodeIS5_E(ptr noundef nonnull align 8 dereferenceable(48) %this, ptr noundef %0)
  %add.ptr.i.i = getelementptr inbounds i8, ptr %this, i64 8
  store ptr null, ptr %_M_parent.i.i.i.i, align 8
  %_M_left.i.i.i = getelementptr inbounds i8, ptr %this, i64 24
  store ptr %add.ptr.i.i, ptr %_M_left.i.i.i, align 8
  %_M_right.i.i.i = getelementptr inbounds i8, ptr %this, i64 32
  store ptr %add.ptr.i.i, ptr %_M_right.i.i.i, align 8
  %_M_node_count.i.i.i = getelementptr inbounds i8, ptr %this, i64 40
  store i64 0, ptr %_M_node_count.i.i.i, align 8
  ret void
}